; Function Attrs: inlinehint nofree norecurse nosync nounwind memory(argmem: readwrite) uwtable
define internal fastcc void @dxt3_block_internal(ptr noundef writeonly captures(none) %0, i64 noundef %1, ptr noundef readonly captures(none) %2) unnamed_addr #3 {
  %4 = alloca [4 x i32], align 16
  %5 = alloca [4 x i8], align 1
  call void @llvm.lifetime.start.p0(i64 16, ptr nonnull %4) #7
  %6 = getelementptr inbounds nuw i8, ptr %2, i64 8
  %7 = load i16, ptr %6, align 1, !tbaa !23
  %8 = getelementptr inbounds nuw i8, ptr %2, i64 10
  %9 = load i16, ptr %8, align 1, !tbaa !23
  %10 = getelementptr inbounds nuw i8, ptr %2, i64 12
  %11 = load i32, ptr %10, align 1, !tbaa !23
  %12 = zext i16 %7 to i32
  %13 = lshr i32 %12, 11
  %14 = mul nuw nsw i32 %13, 255
  %15 = add nuw nsw i32 %14, 16
  %16 = lshr i32 %15, 5
  %17 = add nuw nsw i32 %16, %15
  %18 = lshr i32 %17, 5
  %19 = lshr i32 %12, 5
  %20 = and i32 %19, 63
  %21 = mul nuw nsw i32 %20, 255
  %22 = add nuw nsw i32 %21, 32
  %23 = lshr i32 %22, 6
  %24 = add nuw nsw i32 %23, %22
  %25 = lshr i32 %24, 6
  %26 = and i32 %12, 31
  %27 = mul nuw nsw i32 %26, 255
  %28 = add nuw nsw i32 %27, 16
  %29 = lshr i32 %28, 5
  %30 = add nuw nsw i32 %29, %28
  %31 = lshr i32 %30, 5
  %32 = zext i16 %9 to i32
  %33 = lshr i32 %32, 11
  %34 = mul nuw nsw i32 %33, 255
  %35 = add nuw nsw i32 %34, 16
  %36 = lshr i32 %35, 5
  %37 = add nuw nsw i32 %36, %35
  %38 = lshr i32 %37, 5
  %39 = lshr i32 %32, 5
  %40 = and i32 %39, 63
  %41 = mul nuw nsw i32 %40, 255
  %42 = add nuw nsw i32 %41, 32
  %43 = lshr i32 %42, 6
  %44 = add nuw nsw i32 %43, %42
  %45 = lshr i32 %44, 6
  %46 = and i32 %32, 31
  %47 = mul nuw nsw i32 %46, 255
  %48 = add nuw nsw i32 %47, 16
  %49 = lshr i32 %48, 5
  %50 = add nuw nsw i32 %49, %48
  %51 = lshr i32 %50, 5
  %52 = shl nuw nsw i32 %25, 8
  %53 = shl nuw nsw i32 %31, 16
  %54 = add nuw nsw i32 %52, %53
  %55 = add nuw nsw i32 %54, %18
  store i32 %55, ptr %4, align 16, !tbaa !67
  %56 = shl nuw nsw i32 %45, 8
  %57 = shl nuw nsw i32 %51, 16
  %58 = add nuw nsw i32 %56, %57
  %59 = add nuw nsw i32 %58, %38
  %60 = getelementptr inbounds nuw i8, ptr %4, i64 4
  store i32 %59, ptr %60, align 4, !tbaa !67
  %61 = shl nuw nsw i32 %18, 1
  %62 = add nuw nsw i32 %61, %38
  %.lhs.trunc = trunc nuw nsw i32 %62 to i16
  %63 = udiv i16 %.lhs.trunc, 3
  %.zext = zext nneg i16 %63 to i32
  %64 = shl nuw nsw i32 %25, 1
  %65 = add nuw nsw i32 %64, %45
  %.lhs.trunc26 = trunc nuw nsw i32 %65 to i16
  %66 = udiv i16 %.lhs.trunc26, 3
  %.zext27 = zext nneg i16 %66 to i32
  %67 = shl nuw nsw i32 %.zext27, 8
  %68 = and i32 %67, 65280
  %69 = shl nuw nsw i32 %31, 1
  %70 = add nuw nsw i32 %69, %51
  %.lhs.trunc28 = trunc nuw nsw i32 %70 to i16
  %71 = udiv i16 %.lhs.trunc28, 3
  %.zext29 = zext nneg i16 %71 to i32
  %72 = shl nuw nsw i32 %.zext29, 16
  %73 = and i32 %72, 16711680
  %74 = or disjoint i32 %73, %.zext
  %75 = or i32 %74, %68
  %76 = getelementptr inbounds nuw i8, ptr %4, i64 8
  store i32 %75, ptr %76, align 8, !tbaa !67
  %77 = shl nuw nsw i32 %38, 1
  %78 = add nuw nsw i32 %77, %18
  %.lhs.trunc30 = trunc nuw nsw i32 %78 to i16
  %79 = udiv i16 %.lhs.trunc30, 3
  %.zext31 = zext nneg i16 %79 to i32
  %80 = shl nuw nsw i32 %45, 1
  %81 = add nuw nsw i32 %80, %25
  %.lhs.trunc32 = trunc nuw nsw i32 %81 to i16
  %82 = udiv i16 %.lhs.trunc32, 3
  %.zext33 = zext nneg i16 %82 to i32
  %83 = shl nuw nsw i32 %.zext33, 8
  %84 = and i32 %83, 65280
  %85 = shl nuw nsw i32 %51, 1
  %86 = add nuw nsw i32 %85, %31
  %.lhs.trunc34 = trunc nuw nsw i32 %86 to i16
  %87 = udiv i16 %.lhs.trunc34, 3
  %.zext35 = zext nneg i16 %87 to i32
  %88 = shl nuw nsw i32 %.zext35, 16
  %89 = and i32 %88, 16711680
  %90 = or disjoint i32 %89, %.zext31
  %91 = or i32 %90, %84
  %92 = getelementptr inbounds nuw i8, ptr %4, i64 12
  store i32 %91, ptr %92, align 4, !tbaa !67
  %93 = getelementptr inbounds nuw i8, ptr %5, i64 1
  %94 = getelementptr inbounds nuw i8, ptr %5, i64 2
  %95 = getelementptr inbounds nuw i8, ptr %5, i64 3
  br label %96

96:                                               ; preds = %3, %125
  %indvars.iv42 = phi i64 [ 0, %3 ], [ %indvars.iv.next43, %125 ]
  %.040 = phi ptr [ %0, %3 ], [ %126, %125 ]
  %.02538 = phi i32 [ %11, %3 ], [ %122, %125 ]
  %97 = shl nuw nsw i64 %indvars.iv42, 1
  %98 = getelementptr inbounds nuw i8, ptr %2, i64 %97
  %99 = load i16, ptr %98, align 1, !tbaa !23
  call void @llvm.lifetime.start.p0(i64 4, ptr nonnull %5) #7
  %100 = trunc i16 %99 to i8
  %101 = and i8 %100, 15
  %102 = mul nuw i8 %101, 17
  store i8 %102, ptr %5, align 1, !tbaa !23
  %103 = lshr i8 %100, 4
  %104 = mul nuw i8 %103, 17
  store i8 %104, ptr %93, align 1, !tbaa !23
  %105 = lshr i16 %99, 8
  %106 = trunc nuw i16 %105 to i8
  %107 = and i8 %106, 15
  %108 = mul nuw i8 %107, 17
  store i8 %108, ptr %94, align 1, !tbaa !23
  %109 = lshr i16 %99, 12
  %110 = trunc nuw nsw i16 %109 to i8
  %111 = mul nuw i8 %110, 17
  store i8 %111, ptr %95, align 1, !tbaa !23
  br label %112

112:                                              ; preds = %96, %112
  %indvars.iv = phi i64 [ 0, %96 ], [ %indvars.iv.next, %112 ]
  %.136 = phi i32 [ %.02538, %96 ], [ %122, %112 ]
  %113 = getelementptr inbounds nuw [4 x i8], ptr %5, i64 0, i64 %indvars.iv
  %114 = load i8, ptr %113, align 1, !tbaa !23
  %115 = and i32 %.136, 3
  %116 = zext nneg i32 %115 to i64
  %117 = getelementptr inbounds nuw [4 x i32], ptr %4, i64 0, i64 %116
  %118 = load i32, ptr %117, align 4, !tbaa !67
  %119 = zext i8 %114 to i32
  %120 = shl nuw i32 %119, 24
  %121 = or i32 %120, %118
  %122 = lshr i32 %.136, 2
  %123 = shl nuw nsw i64 %indvars.iv, 2
  %124 = getelementptr inbounds nuw i8, ptr %.040, i64 %123
  store i32 %121, ptr %124, align 1, !tbaa !23
  %indvars.iv.next = add nuw nsw i64 %indvars.iv, 1
  %exitcond.not = icmp eq i64 %indvars.iv.next, 4
  br i1 %exitcond.not, label %125, label %112, !llvm.loop !70

125:                                              ; preds = %112
  %126 = getelementptr inbounds i8, ptr %.040, i64 %1
  call void @llvm.lifetime.end.p0(i64 4, ptr nonnull %5) #7
  %indvars.iv.next43 = add nuw nsw i64 %indvars.iv42, 1
  %exitcond45.not = icmp eq i64 %indvars.iv.next43, 4
  br i1 %exitcond45.not, label %127, label %96, !llvm.loop !71

127:                                              ; preds = %125
  call void @llvm.lifetime.end.p0(i64 16, ptr nonnull %4) #7
  ret void
}